; Function Attrs: mustprogress uwtable
define void @_ZN2cv4gapi7inRangeERKNS_4GMatERKNS_7GScalarES6_(ptr dead_on_unwind noalias writable sret(%"class.cv::GMat") align 8 %0, ptr noundef nonnull readonly align 8 captures(none) dereferenceable(16) %1, ptr noundef nonnull readonly align 8 captures(none) dereferenceable(16) %2, ptr noundef nonnull readonly align 8 captures(none) dereferenceable(16) %3) local_unnamed_addr #3 personality ptr @__gxx_personality_v0 {
  %5 = alloca %"class.cv::GMat", align 8
  %6 = alloca %"class.cv::GScalar", align 8
  %7 = alloca %"class.cv::GScalar", align 8
  %8 = load ptr, ptr %1, align 8, !tbaa !3
  store ptr %8, ptr %5, align 8, !tbaa !3
  %9 = getelementptr inbounds nuw i8, ptr %5, i64 8
  %10 = getelementptr inbounds nuw i8, ptr %1, i64 8
  %11 = load ptr, ptr %10, align 8, !tbaa !11
  store ptr %11, ptr %9, align 8, !tbaa !11
  %.not.i.i.i.i = icmp eq ptr %11, null
  br i1 %.not.i.i.i.i, label %_ZN2cv4GMatC2ERKS0_.exit, label %12

12:                                               ; preds = %4
  %13 = getelementptr inbounds nuw i8, ptr %11, i64 8
  %14 = load i8, ptr @__libc_single_threaded, align 1, !tbaa !12
  %.not.i.i.i.i.i = icmp eq i8 %14, 0
  br i1 %.not.i.i.i.i.i, label %18, label %15

15:                                               ; preds = %12
  %16 = load i32, ptr %13, align 4, !tbaa !13
  %17 = add nsw i32 %16, 1
  store i32 %17, ptr %13, align 4, !tbaa !13
  br label %_ZN2cv4GMatC2ERKS0_.exit

18:                                               ; preds = %12
  %19 = atomicrmw volatile add ptr %13, i32 1 acq_rel, align 4
  br label %_ZN2cv4GMatC2ERKS0_.exit

_ZN2cv4GMatC2ERKS0_.exit:                         ; preds = %4, %15, %18
  %20 = load ptr, ptr %2, align 8, !tbaa !3
  store ptr %20, ptr %6, align 8, !tbaa !3
  %21 = getelementptr inbounds nuw i8, ptr %6, i64 8
  %22 = getelementptr inbounds nuw i8, ptr %2, i64 8
  %23 = load ptr, ptr %22, align 8, !tbaa !11
  store ptr %23, ptr %21, align 8, !tbaa !11
  %.not.i.i.i.i4 = icmp eq ptr %23, null
  br i1 %.not.i.i.i.i4, label %_ZN2cv7GScalarC2ERKS0_.exit, label %24

24:                                               ; preds = %_ZN2cv4GMatC2ERKS0_.exit
  %25 = getelementptr inbounds nuw i8, ptr %23, i64 8
  %26 = load i8, ptr @__libc_single_threaded, align 1, !tbaa !12
  %.not.i.i.i.i.i5 = icmp eq i8 %26, 0
  br i1 %.not.i.i.i.i.i5, label %30, label %27

27:                                               ; preds = %24
  %28 = load i32, ptr %25, align 4, !tbaa !13
  %29 = add nsw i32 %28, 1
  store i32 %29, ptr %25, align 4, !tbaa !13
  br label %_ZN2cv7GScalarC2ERKS0_.exit

30:                                               ; preds = %24
  %31 = atomicrmw volatile add ptr %25, i32 1 acq_rel, align 4
  br label %_ZN2cv7GScalarC2ERKS0_.exit

_ZN2cv7GScalarC2ERKS0_.exit:                      ; preds = %_ZN2cv4GMatC2ERKS0_.exit, %27, %30
  %32 = load ptr, ptr %3, align 8, !tbaa !3
  store ptr %32, ptr %7, align 8, !tbaa !3
  %33 = getelementptr inbounds nuw i8, ptr %7, i64 8
  %34 = getelementptr inbounds nuw i8, ptr %3, i64 8
  %35 = load ptr, ptr %34, align 8, !tbaa !11
  store ptr %35, ptr %33, align 8, !tbaa !11
  %.not.i.i.i.i6 = icmp eq ptr %35, null
  br i1 %.not.i.i.i.i6, label %_ZN2cv7GScalarC2ERKS0_.exit8, label %36

36:                                               ; preds = %_ZN2cv7GScalarC2ERKS0_.exit
  %37 = getelementptr inbounds nuw i8, ptr %35, i64 8
  %38 = load i8, ptr @__libc_single_threaded, align 1, !tbaa !12
  %.not.i.i.i.i.i7 = icmp eq i8 %38, 0
  br i1 %.not.i.i.i.i.i7, label %42, label %39

39:                                               ; preds = %36
  %40 = load i32, ptr %37, align 4, !tbaa !13
  %41 = add nsw i32 %40, 1
  store i32 %41, ptr %37, align 4, !tbaa !13
  br label %_ZN2cv7GScalarC2ERKS0_.exit8

42:                                               ; preds = %36
  %43 = atomicrmw volatile add ptr %37, i32 1 acq_rel, align 4
  br label %_ZN2cv7GScalarC2ERKS0_.exit8

_ZN2cv7GScalarC2ERKS0_.exit8:                     ; preds = %_ZN2cv7GScalarC2ERKS0_.exit, %39, %42
  invoke void @_ZN2cv11GKernelTypeINS_4gapi4core8GInRangeESt8functionIFNS_4GMatES5_NS_7GScalarES6_EEE2onES5_S6_S6_(ptr dead_on_unwind writable sret(%"class.cv::GMat") align 8 %0, ptr noundef nonnull %5, ptr noundef nonnull %6, ptr noundef nonnull %7)
          to label %44 unwind label %111

44:                                               ; preds = %_ZN2cv7GScalarC2ERKS0_.exit8
  %45 = load ptr, ptr %33, align 8, !tbaa !11
  %.not.i.i.i = icmp eq ptr %45, null
  br i1 %.not.i.i.i, label %_ZN2cv7GScalarD2Ev.exit, label %46

46:                                               ; preds = %44
  %47 = getelementptr inbounds nuw i8, ptr %45, i64 8
  %48 = load atomic i64, ptr %47 acquire, align 8
  %49 = icmp eq i64 %48, 4294967297
  %50 = trunc i64 %48 to i32
  br i1 %49, label %51, label %59

51:                                               ; preds = %46
  store i32 0, ptr %47, align 8, !tbaa !15
  %52 = getelementptr inbounds nuw i8, ptr %45, i64 12
  store i32 0, ptr %52, align 4, !tbaa !17
  %53 = load ptr, ptr %45, align 8, !tbaa !18
  %54 = getelementptr inbounds nuw i8, ptr %53, i64 16
  %55 = load ptr, ptr %54, align 8
  call void %55(ptr noundef nonnull align 8 dereferenceable(16) %45) #23
  %56 = load ptr, ptr %45, align 8, !tbaa !18
  %57 = getelementptr inbounds nuw i8, ptr %56, i64 24
  %58 = load ptr, ptr %57, align 8
  call void %58(ptr noundef nonnull align 8 dereferenceable(16) %45) #23
  br label %_ZN2cv7GScalarD2Ev.exit

59:                                               ; preds = %46
  %60 = load i8, ptr @__libc_single_threaded, align 1, !tbaa !12
  %.not.i.i.i.i9 = icmp eq i8 %60, 0
  br i1 %.not.i.i.i.i9, label %63, label %61

61:                                               ; preds = %59
  %62 = add nsw i32 %50, -1
  store i32 %62, ptr %47, align 4, !tbaa !13
  br label %_ZN9__gnu_cxx27__exchange_and_add_dispatchEPii.exit.i.i.i.i

63:                                               ; preds = %59
  %64 = atomicrmw volatile add ptr %47, i32 -1 acq_rel, align 4
  br label %_ZN9__gnu_cxx27__exchange_and_add_dispatchEPii.exit.i.i.i.i

_ZN9__gnu_cxx27__exchange_and_add_dispatchEPii.exit.i.i.i.i: ; preds = %63, %61
  %.0.i.i.i.i.i = phi i32 [ %50, %61 ], [ %64, %63 ]
  %65 = icmp eq i32 %.0.i.i.i.i.i, 1
  br i1 %65, label %66, label %_ZN2cv7GScalarD2Ev.exit, !prof !20

66:                                               ; preds = %_ZN9__gnu_cxx27__exchange_and_add_dispatchEPii.exit.i.i.i.i
  call void @_ZNSt16_Sp_counted_baseILN9__gnu_cxx12_Lock_policyE2EE24_M_release_last_use_coldEv(ptr noundef nonnull align 8 dereferenceable(16) %45) #23
  br label %_ZN2cv7GScalarD2Ev.exit

_ZN2cv7GScalarD2Ev.exit:                          ; preds = %44, %51, %_ZN9__gnu_cxx27__exchange_and_add_dispatchEPii.exit.i.i.i.i, %66
  %67 = load ptr, ptr %21, align 8, !tbaa !11
  %.not.i.i.i10 = icmp eq ptr %67, null
  br i1 %.not.i.i.i10, label %_ZN2cv7GScalarD2Ev.exit14, label %68

68:                                               ; preds = %_ZN2cv7GScalarD2Ev.exit
  %69 = getelementptr inbounds nuw i8, ptr %67, i64 8
  %70 = load atomic i64, ptr %69 acquire, align 8
  %71 = icmp eq i64 %70, 4294967297
  %72 = trunc i64 %70 to i32
  br i1 %71, label %73, label %81

73:                                               ; preds = %68
  store i32 0, ptr %69, align 8, !tbaa !15
  %74 = getelementptr inbounds nuw i8, ptr %67, i64 12
  store i32 0, ptr %74, align 4, !tbaa !17
  %75 = load ptr, ptr %67, align 8, !tbaa !18
  %76 = getelementptr inbounds nuw i8, ptr %75, i64 16
  %77 = load ptr, ptr %76, align 8
  call void %77(ptr noundef nonnull align 8 dereferenceable(16) %67) #23
  %78 = load ptr, ptr %67, align 8, !tbaa !18
  %79 = getelementptr inbounds nuw i8, ptr %78, i64 24
  %80 = load ptr, ptr %79, align 8
  call void %80(ptr noundef nonnull align 8 dereferenceable(16) %67) #23
  br label %_ZN2cv7GScalarD2Ev.exit14

81:                                               ; preds = %68
  %82 = load i8, ptr @__libc_single_threaded, align 1, !tbaa !12
  %.not.i.i.i.i11 = icmp eq i8 %82, 0
  br i1 %.not.i.i.i.i11, label %85, label %83

83:                                               ; preds = %81
  %84 = add nsw i32 %72, -1
  store i32 %84, ptr %69, align 4, !tbaa !13
  br label %_ZN9__gnu_cxx27__exchange_and_add_dispatchEPii.exit.i.i.i.i12

85:                                               ; preds = %81
  %86 = atomicrmw volatile add ptr %69, i32 -1 acq_rel, align 4
  br label %_ZN9__gnu_cxx27__exchange_and_add_dispatchEPii.exit.i.i.i.i12

_ZN9__gnu_cxx27__exchange_and_add_dispatchEPii.exit.i.i.i.i12: ; preds = %85, %83
  %.0.i.i.i.i.i13 = phi i32 [ %72, %83 ], [ %86, %85 ]
  %87 = icmp eq i32 %.0.i.i.i.i.i13, 1
  br i1 %87, label %88, label %_ZN2cv7GScalarD2Ev.exit14, !prof !20

88:                                               ; preds = %_ZN9__gnu_cxx27__exchange_and_add_dispatchEPii.exit.i.i.i.i12
  call void @_ZNSt16_Sp_counted_baseILN9__gnu_cxx12_Lock_policyE2EE24_M_release_last_use_coldEv(ptr noundef nonnull align 8 dereferenceable(16) %67) #23
  br label %_ZN2cv7GScalarD2Ev.exit14

_ZN2cv7GScalarD2Ev.exit14:                        ; preds = %_ZN2cv7GScalarD2Ev.exit, %73, %_ZN9__gnu_cxx27__exchange_and_add_dispatchEPii.exit.i.i.i.i12, %88
  %89 = load ptr, ptr %9, align 8, !tbaa !11
  %.not.i.i.i15 = icmp eq ptr %89, null
  br i1 %.not.i.i.i15, label %_ZN2cv4GMatD2Ev.exit, label %90

90:                                               ; preds = %_ZN2cv7GScalarD2Ev.exit14
  %91 = getelementptr inbounds nuw i8, ptr %89, i64 8
  %92 = load atomic i64, ptr %91 acquire, align 8
  %93 = icmp eq i64 %92, 4294967297
  %94 = trunc i64 %92 to i32
  br i1 %93, label %95, label %103

95:                                               ; preds = %90
  store i32 0, ptr %91, align 8, !tbaa !15
  %96 = getelementptr inbounds nuw i8, ptr %89, i64 12
  store i32 0, ptr %96, align 4, !tbaa !17
  %97 = load ptr, ptr %89, align 8, !tbaa !18
  %98 = getelementptr inbounds nuw i8, ptr %97, i64 16
  %99 = load ptr, ptr %98, align 8
  call void %99(ptr noundef nonnull align 8 dereferenceable(16) %89) #23
  %100 = load ptr, ptr %89, align 8, !tbaa !18
  %101 = getelementptr inbounds nuw i8, ptr %100, i64 24
  %102 = load ptr, ptr %101, align 8
  call void %102(ptr noundef nonnull align 8 dereferenceable(16) %89) #23
  br label %_ZN2cv4GMatD2Ev.exit

103:                                              ; preds = %90
  %104 = load i8, ptr @__libc_single_threaded, align 1, !tbaa !12
  %.not.i.i.i.i16 = icmp eq i8 %104, 0
  br i1 %.not.i.i.i.i16, label %107, label %105

105:                                              ; preds = %103
  %106 = add nsw i32 %94, -1
  store i32 %106, ptr %91, align 4, !tbaa !13
  br label %_ZN9__gnu_cxx27__exchange_and_add_dispatchEPii.exit.i.i.i.i17

107:                                              ; preds = %103
  %108 = atomicrmw volatile add ptr %91, i32 -1 acq_rel, align 4
  br label %_ZN9__gnu_cxx27__exchange_and_add_dispatchEPii.exit.i.i.i.i17

_ZN9__gnu_cxx27__exchange_and_add_dispatchEPii.exit.i.i.i.i17: ; preds = %107, %105
  %.0.i.i.i.i.i18 = phi i32 [ %94, %105 ], [ %108, %107 ]
  %109 = icmp eq i32 %.0.i.i.i.i.i18, 1
  br i1 %109, label %110, label %_ZN2cv4GMatD2Ev.exit, !prof !20

110:                                              ; preds = %_ZN9__gnu_cxx27__exchange_and_add_dispatchEPii.exit.i.i.i.i17
  call void @_ZNSt16_Sp_counted_baseILN9__gnu_cxx12_Lock_policyE2EE24_M_release_last_use_coldEv(ptr noundef nonnull align 8 dereferenceable(16) %89) #23
  br label %_ZN2cv4GMatD2Ev.exit

_ZN2cv4GMatD2Ev.exit:                             ; preds = %_ZN2cv7GScalarD2Ev.exit14, %95, %_ZN9__gnu_cxx27__exchange_and_add_dispatchEPii.exit.i.i.i.i17, %110
  ret void

111:                                              ; preds = %_ZN2cv7GScalarC2ERKS0_.exit8
  %112 = landingpad { ptr, i32 }
          cleanup
  call void @_ZN2cv7GScalarD2Ev(ptr noundef nonnull align 8 dereferenceable(16) %7) #23
  call void @_ZN2cv7GScalarD2Ev(ptr noundef nonnull align 8 dereferenceable(16) %6) #23
  call void @_ZN2cv4GMatD2Ev(ptr noundef nonnull align 8 dereferenceable(16) %5) #23
  resume { ptr, i32 } %112
}